; Function Attrs: mustprogress nofree nounwind willreturn memory(read, inaccessiblemem: none) uwtable
define noundef zeroext i1 @_ZNK4pkpy3StreqERKS0_(ptr nocapture noundef nonnull readonly align 8 dereferenceable(32) %0, ptr nocapture noundef nonnull readonly align 8 dereferenceable(32) %1) local_unnamed_addr #9 align 2 {
  %3 = load i32, ptr %0, align 8
  %4 = load i32, ptr %1, align 8
  %.not = icmp eq i32 %3, %4
  br i1 %.not, label %5, label %12

5:                                                ; preds = %2
  %6 = getelementptr inbounds i8, ptr %0, i64 8
  %7 = load ptr, ptr %6, align 8
  %8 = getelementptr inbounds i8, ptr %1, i64 8
  %9 = load ptr, ptr %8, align 8
  %10 = sext i32 %3 to i64
  %bcmp = tail call i32 @bcmp(ptr %7, ptr %9, i64 %10)
  %11 = icmp eq i32 %bcmp, 0
  br label %12

12:                                               ; preds = %2, %5
  %.0 = phi i1 [ %11, %5 ], [ false, %2 ]
  ret i1 %.0
}